; Function Attrs: mustprogress nounwind uwtable
define void @_ZN32pxrInternal_v0_24__pxrReserved__20UsdStageCacheRequestD2Ev(ptr nocapture noundef nonnull align 8 dereferenceable(16) %0) unnamed_addr #0 align 2 personality ptr @__gxx_personality_v0 {
  store ptr getelementptr inbounds inrange(-16, 40) (i8, ptr @_ZTVN32pxrInternal_v0_24__pxrReserved__20UsdStageCacheRequestE, i64 16), ptr %0, align 8
  %2 = getelementptr inbounds nuw i8, ptr %0, i64 8
  %3 = load ptr, ptr %2, align 8
  %.not.i = icmp eq ptr %3, null
  br i1 %.not.i, label %_ZNSt10unique_ptrIN32pxrInternal_v0_24__pxrReserved__20UsdStageCacheRequest5_DataENS1_12_DataDeleterEED2Ev.exit, label %4

4:                                                ; preds = %1
  %5 = load ptr, ptr %3, align 8
  %.not.i.i.i.i.i.i = icmp eq ptr %5, null
  br i1 %.not.i.i.i.i.i.i, label %_ZN32pxrInternal_v0_24__pxrReserved__20UsdStageCacheRequest12_DataDeleterclEPNS0_5_DataE.exit.i, label %6

6:                                                ; preds = %4
  %7 = getelementptr inbounds nuw i8, ptr %3, i64 16
  %8 = load ptr, ptr %7, align 8
  %9 = ptrtoint ptr %8 to i64
  %10 = ptrtoint ptr %5 to i64
  %11 = sub i64 %9, %10
  tail call void @_ZdlPvm(ptr noundef nonnull %5, i64 noundef %11) #16
  br label %_ZN32pxrInternal_v0_24__pxrReserved__20UsdStageCacheRequest12_DataDeleterclEPNS0_5_DataE.exit.i

_ZN32pxrInternal_v0_24__pxrReserved__20UsdStageCacheRequest12_DataDeleterclEPNS0_5_DataE.exit.i: ; preds = %6, %4
  tail call void @_ZdlPvm(ptr noundef nonnull %3, i64 noundef 24) #16
  br label %_ZNSt10unique_ptrIN32pxrInternal_v0_24__pxrReserved__20UsdStageCacheRequest5_DataENS1_12_DataDeleterEED2Ev.exit

_ZNSt10unique_ptrIN32pxrInternal_v0_24__pxrReserved__20UsdStageCacheRequest5_DataENS1_12_DataDeleterEED2Ev.exit: ; preds = %1, %_ZN32pxrInternal_v0_24__pxrReserved__20UsdStageCacheRequest12_DataDeleterclEPNS0_5_DataE.exit.i
  store ptr null, ptr %2, align 8
  ret void
}